target datalayout = "e-m:e-p270:32:32-p271:32:32-p272:64:64-i64:64-i128:128-f80:128-n8:16:32:64-S128"
target triple = "x86_64-pc-linux-gnu"

@CodeEntryAlignment = external global i64, align 8
@OptoLoopAlignment = external global i64, align 8
@.str.17 = private unnamed_addr constant [48 x i8] c"OptoLoopAlignment (%ld) must be a power of two\0A\00", align 1
@.str.18 = private unnamed_addr constant [59 x i8] c"OptoLoopAlignment (%ld) must be multiple of NOP size (%d)\0A\00", align 1
@.str.19 = private unnamed_addr constant [75 x i8] c"OptoLoopAlignment (%ld) must be less or equal to CodeEntryAlignment (%ld)\0A\00", align 1

; Function Attrs: mustprogress nounwind uwtable
define linkonce_odr hidden noundef i32 @_ZN9relocInfo9addr_unitEv() #1 comdat align 2 {
  ret i32 1
}

; Function Attrs: mustprogress nounwind uwtable
define linkonce_odr hidden noundef zeroext i1 @_Z13is_power_of_2IlTnNSt9enable_ifIXcvbsr3std11is_integralIT_EE5valueEiE4typeELi0EEbS1_(i64 noundef %0) #1 comdat {
  %2 = alloca i64, align 8
  store i64 %0, ptr %2, align 8
  %3 = load i64, ptr %2, align 8
  %4 = icmp sgt i64 %3, 0
  br i1 %4, label %5, label %11

5:                                                ; preds = %1
  %6 = load i64, ptr %2, align 8
  %7 = load i64, ptr %2, align 8
  %8 = sub nsw i64 %7, 1
  %9 = and i64 %6, %8
  %10 = icmp eq i64 %9, 0
  br label %11

11:                                               ; preds = %5, %1
  %12 = phi i1 [ false, %1 ], [ %10, %5 ]
  ret i1 %12
}

; Function Attrs: mustprogress nounwind uwtable
define hidden noundef i32 @_Z31OptoLoopAlignmentConstraintFunclb(i64 noundef %0, i1 noundef zeroext %1) #1 {
  %3 = alloca i32, align 4
  %4 = alloca i64, align 8
  %5 = alloca i8, align 1
  store i64 %0, ptr %4, align 8
  %6 = zext i1 %1 to i8
  store i8 %6, ptr %5, align 1
  %7 = load i64, ptr %4, align 8
  %8 = call noundef zeroext i1 @_Z13is_power_of_2IlTnNSt9enable_ifIXcvbsr3std11is_integralIT_EE5valueEiE4typeELi0EEbS1_(i64 noundef %7)
  br i1 %8, label %13, label %9

9:                                                ; preds = %2
  %10 = load i8, ptr %5, align 1
  %11 = trunc i8 %10 to i1
  %12 = load i64, ptr %4, align 8
  call void (i1, ptr, ...) @_ZN7JVMFlag10printErrorEbPKcz(i1 noundef zeroext %11, ptr noundef @.str.17, i64 noundef %12)
  store i32 6, ptr %3, align 4
  br label %34

13:                                               ; preds = %2
  %14 = load i64, ptr @OptoLoopAlignment, align 8
  %15 = call noundef i32 @_ZN9relocInfo9addr_unitEv()
  %16 = sext i32 %15 to i64
  %17 = srem i64 %14, %16
  %18 = icmp ne i64 %17, 0
  br i1 %18, label %19, label %24

19:                                               ; preds = %13
  %20 = load i8, ptr %5, align 1
  %21 = trunc i8 %20 to i1
  %22 = load i64, ptr %4, align 8
  %23 = call noundef i32 @_ZN9relocInfo9addr_unitEv()
  call void (i1, ptr, ...) @_ZN7JVMFlag10printErrorEbPKcz(i1 noundef zeroext %21, ptr noundef @.str.18, i64 noundef %22, i32 noundef %23)
  store i32 6, ptr %3, align 4
  br label %34

24:                                               ; preds = %13
  %25 = load i64, ptr @OptoLoopAlignment, align 8
  %26 = load i64, ptr @CodeEntryAlignment, align 8
  %27 = icmp sgt i64 %25, %26
  br i1 %27, label %28, label %33

28:                                               ; preds = %24
  %29 = load i8, ptr %5, align 1
  %30 = trunc i8 %29 to i1
  %31 = load i64, ptr %4, align 8
  %32 = load i64, ptr @CodeEntryAlignment, align 8
  call void (i1, ptr, ...) @_ZN7JVMFlag10printErrorEbPKcz(i1 noundef zeroext %30, ptr noundef @.str.19, i64 noundef %31, i64 noundef %32)
  store i32 6, ptr %3, align 4
  br label %34

33:                                               ; preds = %24
  store i32 0, ptr %3, align 4
  br label %34

34:                                               ; preds = %33, %28, %19, %9
  %35 = load i32, ptr %3, align 4
  ret i32 %35
}