; Function Attrs: mustprogress nounwind uwtable
define hidden noundef range(i32 0, 7) i32 @_Z31OptoLoopAlignmentConstraintFunclb(i64 noundef %0, i1 noundef zeroext %1) local_unnamed_addr #0 {
  %3 = icmp sgt i64 %0, 0
  %4 = add nuw i64 %0, 9223372036854775807
  %5 = and i64 %4, %0
  %6 = icmp eq i64 %5, 0
  %7 = select i1 %3, i1 %6, i1 false
  br i1 %7, label %9, label %8

8:                                                ; preds = %2
  tail call void (i1, ptr, ...) @_ZN7JVMFlag10printErrorEbPKcz(i1 noundef zeroext %1, ptr noundef nonnull @.str.17, i64 noundef %0) #6
  br label %14

9:                                                ; preds = %2
  %10 = load i64, ptr @OptoLoopAlignment, align 8
  %11 = load i64, ptr @CodeEntryAlignment, align 8
  %12 = icmp sgt i64 %10, %11
  br i1 %12, label %13, label %14

13:                                               ; preds = %9
  tail call void (i1, ptr, ...) @_ZN7JVMFlag10printErrorEbPKcz(i1 noundef zeroext %1, ptr noundef nonnull @.str.19, i64 noundef %0, i64 noundef %11) #6
  br label %14

14:                                               ; preds = %9, %13, %8
  %.0 = phi i32 [ 6, %13 ], [ 6, %8 ], [ 0, %9 ]
  ret i32 %.0
}